; Function Attrs: mustprogress uwtable
define noundef zeroext i1 @_ZNK5arrow9ArraySpan24UnionMayHaveLogicalNullsEv(ptr noundef nonnull readonly align 8 captures(none) dereferenceable(128) %0) local_unnamed_addr #0 align 2 {
  %2 = getelementptr inbounds nuw i8, ptr %0, i64 104
  %3 = load ptr, ptr %2, align 8, !tbaa !87
  %4 = getelementptr inbounds nuw i8, ptr %0, i64 112
  %5 = load ptr, ptr %4, align 8, !tbaa !87
  %.not11.not = icmp eq ptr %3, %5
  br i1 %.not11.not, label %._crit_edge, label %.lr.ph

.lr.ph:                                           ; preds = %1, %.lr.ph
  %.sroa.08.012 = phi ptr [ %7, %.lr.ph ], [ %3, %1 ]
  %6 = tail call noundef zeroext i1 @_ZNK5arrow9ArraySpan19MayHaveLogicalNullsEv(ptr noundef nonnull align 8 dereferenceable(128) %.sroa.08.012)
  %7 = getelementptr inbounds nuw i8, ptr %.sroa.08.012, i64 128
  %.not.not = icmp eq ptr %7, %5
  %or.cond = select i1 %6, i1 true, i1 %.not.not
  br i1 %or.cond, label %._crit_edge, label %.lr.ph

._crit_edge:                                      ; preds = %.lr.ph, %1
  %.not.lcssa = phi i1 [ false, %1 ], [ %6, %.lr.ph ]
  ret i1 %.not.lcssa
}